target datalayout = "e-m:e-p270:32:32-p271:32:32-p272:64:64-i64:64-i128:128-f80:128-n8:16:32:64-S128"
target triple = "x86_64-pc-linux-gnu"

%struct.ident_t = type { i32, i32, i32, i32, ptr }

@1 = private unnamed_addr constant %struct.ident_t { i32 0, i32 514, i32 0, i32 22, ptr @0 }, align 8
@.gomp_critical_user_.reduction.var = common global [8 x i32] zeroinitializer, align 8
@3 = private unnamed_addr constant %struct.ident_t { i32 0, i32 18, i32 0, i32 22, ptr @0 }, align 8

; Function Attrs: alwaysinline norecurse nounwind uwtable
define internal void @_ZN8LightGBM8Metadata22SetQueriesFromIteratorIPKiEEvT_S4_.omp_outlined(ptr noalias noundef %0, ptr noalias noundef %1, ptr noundef nonnull align 8 dereferenceable(8) %2, ptr noundef nonnull align 8 dereferenceable(8) %3, ptr noundef nonnull align 4 dereferenceable(4) %4) #20 {
  %6 = alloca ptr, align 8
  %7 = alloca ptr, align 8
  %8 = alloca ptr, align 8
  %9 = alloca ptr, align 8
  %10 = alloca ptr, align 8
  %11 = alloca i32, align 4
  %12 = alloca i32, align 4
  %13 = alloca i32, align 4
  %14 = alloca i32, align 4
  %15 = alloca i32, align 4
  %16 = alloca i32, align 4
  %17 = alloca i32, align 4
  %18 = alloca i32, align 4
  %19 = alloca i32, align 4
  %20 = alloca i32, align 4
  %21 = alloca [1 x ptr], align 8
  store ptr %0, ptr %6, align 8, !tbaa !119
  store ptr %1, ptr %7, align 8, !tbaa !119
  store ptr %2, ptr %8, align 8, !tbaa !155
  store ptr %3, ptr %9, align 8, !tbaa !155
  store ptr %4, ptr %10, align 8, !tbaa !119
  %22 = load ptr, ptr %8, align 8, !tbaa !155
  %23 = load ptr, ptr %9, align 8, !tbaa !155
  %24 = load ptr, ptr %10, align 8, !tbaa !119
  call void @llvm.lifetime.start.p0(i64 4, ptr %11) #3
  call void @llvm.lifetime.start.p0(i64 4, ptr %12) #3
  %25 = load ptr, ptr %22, align 8, !tbaa !119
  %26 = load ptr, ptr %23, align 8, !tbaa !119
  %27 = ptrtoint ptr %25 to i64
  %28 = ptrtoint ptr %26 to i64
  %29 = sub i64 %27, %28
  %30 = sdiv exact i64 %29, 4
  %31 = trunc i64 %30 to i32
  store i32 %31, ptr %12, align 4, !tbaa !103
  call void @llvm.lifetime.start.p0(i64 4, ptr %13) #3
  %32 = load i32, ptr %12, align 4, !tbaa !103
  %33 = sub nsw i32 %32, 0
  %34 = sdiv i32 %33, 1
  %35 = sub nsw i32 %34, 1
  store i32 %35, ptr %13, align 4, !tbaa !103
  call void @llvm.lifetime.start.p0(i64 4, ptr %14) #3
  store i32 0, ptr %14, align 4, !tbaa !103
  call void @llvm.lifetime.end.p0(i64 4, ptr %14) #3
  %36 = load i32, ptr %12, align 4, !tbaa !103
  %37 = icmp slt i32 0, %36
  br i1 %37, label %38, label %88

38:                                               ; preds = %5
  call void @llvm.lifetime.start.p0(i64 4, ptr %15) #3
  store i32 0, ptr %15, align 4, !tbaa !103
  call void @llvm.lifetime.start.p0(i64 4, ptr %16) #3
  %39 = load i32, ptr %13, align 4, !tbaa !103
  store i32 %39, ptr %16, align 4, !tbaa !103
  call void @llvm.lifetime.start.p0(i64 4, ptr %17) #3
  store i32 1, ptr %17, align 4, !tbaa !103
  call void @llvm.lifetime.start.p0(i64 4, ptr %18) #3
  store i32 0, ptr %18, align 4, !tbaa !103
  call void @llvm.lifetime.start.p0(i64 4, ptr %19) #3
  store i32 0, ptr %19, align 4, !tbaa !103
  call void @llvm.lifetime.start.p0(i64 4, ptr %20) #3
  %40 = load ptr, ptr %6, align 8
  %41 = load i32, ptr %40, align 4, !tbaa !103
  call void @__kmpc_for_static_init_4(ptr @1, i32 %41, i32 34, ptr %18, ptr %15, ptr %16, ptr %17, i32 1, i32 1)
  %42 = load i32, ptr %16, align 4, !tbaa !103
  %43 = load i32, ptr %13, align 4, !tbaa !103
  %44 = icmp sgt i32 %42, %43
  br i1 %44, label %45, label %47

45:                                               ; preds = %38
  %46 = load i32, ptr %13, align 4, !tbaa !103
  br label %49

47:                                               ; preds = %38
  %48 = load i32, ptr %16, align 4, !tbaa !103
  br label %49

49:                                               ; preds = %47, %45
  %50 = phi i32 [ %46, %45 ], [ %48, %47 ]
  store i32 %50, ptr %16, align 4, !tbaa !103
  %51 = load i32, ptr %15, align 4, !tbaa !103
  store i32 %51, ptr %11, align 4, !tbaa !103
  br label %52

52:                                               ; preds = %69, %49
  %53 = load i32, ptr %11, align 4, !tbaa !103
  %54 = load i32, ptr %16, align 4, !tbaa !103
  %55 = icmp sle i32 %53, %54
  br i1 %55, label %57, label %56

56:                                               ; preds = %52
  br label %72

57:                                               ; preds = %52
  %58 = load i32, ptr %11, align 4, !tbaa !103
  %59 = mul nsw i32 %58, 1
  %60 = add nsw i32 0, %59
  store i32 %60, ptr %20, align 4, !tbaa !103
  %61 = load ptr, ptr %23, align 8, !tbaa !119
  %62 = load i32, ptr %20, align 4, !tbaa !103
  %63 = sext i32 %62 to i64
  %64 = getelementptr inbounds i32, ptr %61, i64 %63
  %65 = load i32, ptr %64, align 4, !tbaa !103
  %66 = load i32, ptr %19, align 4, !tbaa !103
  %67 = add nsw i32 %66, %65
  store i32 %67, ptr %19, align 4, !tbaa !103
  br label %68

68:                                               ; preds = %57
  br label %69

69:                                               ; preds = %68
  %70 = load i32, ptr %11, align 4, !tbaa !103
  %71 = add nsw i32 %70, 1
  store i32 %71, ptr %11, align 4, !tbaa !103
  br label %52

72:                                               ; preds = %56
  br label %73

73:                                               ; preds = %72
  %74 = load ptr, ptr %6, align 8
  %75 = load i32, ptr %74, align 4, !tbaa !103
  call void @__kmpc_for_static_fini(ptr @1, i32 %75)
  %76 = getelementptr inbounds [1 x ptr], ptr %21, i64 0, i64 0
  store ptr %19, ptr %76, align 8
  %77 = load ptr, ptr %6, align 8
  %78 = load i32, ptr %77, align 4, !tbaa !103
  %79 = call i32 @__kmpc_reduce_nowait(ptr @3, i32 %78, i32 1, i64 8, ptr %21, ptr @_ZN8LightGBM8Metadata22SetQueriesFromIteratorIPKiEEvT_S4_.omp_outlined.omp.reduction.reduction_func, ptr @.gomp_critical_user_.reduction.var)
  switch i32 %79, label %87 [
    i32 1, label %80
    i32 2, label %84
  ]

80:                                               ; preds = %73
  %81 = load i32, ptr %24, align 4, !tbaa !103
  %82 = load i32, ptr %19, align 4, !tbaa !103
  %83 = add nsw i32 %81, %82
  store i32 %83, ptr %24, align 4, !tbaa !103
  call void @__kmpc_end_reduce_nowait(ptr @3, i32 %78, ptr @.gomp_critical_user_.reduction.var)
  br label %87

84:                                               ; preds = %73
  %85 = load i32, ptr %19, align 4, !tbaa !103
  %86 = atomicrmw add ptr %24, i32 %85 monotonic, align 4
  br label %87

87:                                               ; preds = %84, %80, %73
  call void @llvm.lifetime.end.p0(i64 4, ptr %20) #3
  call void @llvm.lifetime.end.p0(i64 4, ptr %19) #3
  call void @llvm.lifetime.end.p0(i64 4, ptr %18) #3
  call void @llvm.lifetime.end.p0(i64 4, ptr %17) #3
  call void @llvm.lifetime.end.p0(i64 4, ptr %16) #3
  call void @llvm.lifetime.end.p0(i64 4, ptr %15) #3
  br label %88

88:                                               ; preds = %87, %5
  call void @llvm.lifetime.end.p0(i64 4, ptr %13) #3
  call void @llvm.lifetime.end.p0(i64 4, ptr %12) #3
  call void @llvm.lifetime.end.p0(i64 4, ptr %11) #3
  ret void
}