; Function Attrs: alwaysinline norecurse nounwind uwtable
define internal void @_ZN8LightGBM8Metadata22SetQueriesFromIteratorIPKiEEvT_S4_.omp_outlined(ptr noalias noundef readonly captures(none) %0, ptr noalias readnone captures(none) %1, ptr noundef nonnull readonly align 8 captures(none) dereferenceable(8) %2, ptr noundef nonnull readonly align 8 captures(none) dereferenceable(8) %3, ptr noundef nonnull align 4 captures(none) dereferenceable(4) %4) #21 {
  %6 = alloca i32, align 4
  %7 = alloca i32, align 4
  %8 = alloca i32, align 4
  %9 = alloca i32, align 4
  %10 = alloca i32, align 4
  %11 = alloca [1 x ptr], align 8
  %12 = load ptr, ptr %2, align 8, !tbaa !100
  %13 = load ptr, ptr %3, align 8, !tbaa !100
  %14 = ptrtoint ptr %12 to i64
  %15 = ptrtoint ptr %13 to i64
  %16 = sub i64 %14, %15
  %17 = lshr exact i64 %16, 2
  %18 = trunc i64 %17 to i32
  %19 = icmp sgt i32 %18, 0
  br i1 %19, label %20, label %43

20:                                               ; preds = %5
  %21 = add nsw i32 %18, -1
  call void @llvm.lifetime.start.p0(i64 4, ptr nonnull %6) #20
  store i32 0, ptr %6, align 4, !tbaa !59
  call void @llvm.lifetime.start.p0(i64 4, ptr nonnull %7) #20
  store i32 %21, ptr %7, align 4, !tbaa !59
  call void @llvm.lifetime.start.p0(i64 4, ptr nonnull %8) #20
  store i32 1, ptr %8, align 4, !tbaa !59
  call void @llvm.lifetime.start.p0(i64 4, ptr nonnull %9) #20
  store i32 0, ptr %9, align 4, !tbaa !59
  call void @llvm.lifetime.start.p0(i64 4, ptr nonnull %10) #20
  store i32 0, ptr %10, align 4, !tbaa !59
  %22 = load i32, ptr %0, align 4, !tbaa !59
  call void @__kmpc_for_static_init_4(ptr nonnull @1, i32 %22, i32 34, ptr nonnull %9, ptr nonnull %6, ptr nonnull %7, ptr nonnull %8, i32 1, i32 1)
  %23 = load i32, ptr %7, align 4, !tbaa !59
  %24 = call i32 @llvm.smin.i32(i32 %23, i32 %21)
  store i32 %24, ptr %7, align 4, !tbaa !59
  %25 = load i32, ptr %6, align 4, !tbaa !59
  %.not14 = icmp sgt i32 %25, %24
  br i1 %.not14, label %._crit_edge, label %.lr.ph

.lr.ph:                                           ; preds = %20
  %26 = load ptr, ptr %3, align 8, !tbaa !100
  %27 = sext i32 %25 to i64
  %28 = add nsw i32 %24, 1
  br label %29

29:                                               ; preds = %.lr.ph, %29
  %indvars.iv = phi i64 [ %27, %.lr.ph ], [ %indvars.iv.next, %29 ]
  %30 = phi i32 [ 0, %.lr.ph ], [ %33, %29 ]
  %31 = getelementptr inbounds i32, ptr %26, i64 %indvars.iv
  %32 = load i32, ptr %31, align 4, !tbaa !59
  %33 = add nsw i32 %30, %32
  store i32 %33, ptr %10, align 4, !tbaa !59
  %indvars.iv.next = add nsw i64 %indvars.iv, 1
  %lftr.wideiv = trunc i64 %indvars.iv.next to i32
  %exitcond.not = icmp eq i32 %28, %lftr.wideiv
  br i1 %exitcond.not, label %._crit_edge, label %29

._crit_edge:                                      ; preds = %29, %20
  call void @__kmpc_for_static_fini(ptr nonnull @1, i32 %22)
  store ptr %10, ptr %11, align 8
  %34 = call i32 @__kmpc_reduce_nowait(ptr nonnull @3, i32 %22, i32 1, i64 8, ptr nonnull %11, ptr nonnull @_ZN8LightGBM8Metadata22SetQueriesFromIteratorIPKiEEvT_S4_.omp_outlined.omp.reduction.reduction_func, ptr nonnull @.gomp_critical_user_.reduction.var)
  switch i32 %34, label %42 [
    i32 1, label %35
    i32 2, label %39
  ]

35:                                               ; preds = %._crit_edge
  %36 = load i32, ptr %4, align 4, !tbaa !59
  %37 = load i32, ptr %10, align 4, !tbaa !59
  %38 = add nsw i32 %37, %36
  store i32 %38, ptr %4, align 4, !tbaa !59
  call void @__kmpc_end_reduce_nowait(ptr nonnull @3, i32 %22, ptr nonnull @.gomp_critical_user_.reduction.var)
  br label %42

39:                                               ; preds = %._crit_edge
  %40 = load i32, ptr %10, align 4, !tbaa !59
  %41 = atomicrmw add ptr %4, i32 %40 monotonic, align 4
  br label %42

42:                                               ; preds = %39, %35, %._crit_edge
  call void @llvm.lifetime.end.p0(i64 4, ptr nonnull %10) #20
  call void @llvm.lifetime.end.p0(i64 4, ptr nonnull %9) #20
  call void @llvm.lifetime.end.p0(i64 4, ptr nonnull %8) #20
  call void @llvm.lifetime.end.p0(i64 4, ptr nonnull %7) #20
  call void @llvm.lifetime.end.p0(i64 4, ptr nonnull %6) #20
  br label %43

43:                                               ; preds = %42, %5
  ret void
}